target datalayout = "e-m:e-p270:32:32-p271:32:32-p272:64:64-i64:64-i128:128-f80:128-n8:16:32:64-S128"
target triple = "x86_64-pc-linux-gnu"

%struct.XYRemap = type { [4 x [4 x i16]], [4 x [4 x i16]], [4 x [4 x float]] }

; Function Attrs: nounwind uwtable
define internal void @bilinear_kernel(float noundef %0, float noundef %1, ptr noundef %2, ptr noundef %3, ptr noundef %4, ptr noundef %5) #0 {
  %7 = alloca float, align 4
  %8 = alloca float, align 4
  %9 = alloca ptr, align 8
  %10 = alloca ptr, align 8
  %11 = alloca ptr, align 8
  %12 = alloca ptr, align 8
  %13 = alloca i32, align 4
  %14 = alloca i32, align 4
  %15 = alloca i32, align 4
  store float %0, ptr %7, align 4, !tbaa !99
  store float %1, ptr %8, align 4, !tbaa !99
  store ptr %2, ptr %9, align 8, !tbaa !134
  store ptr %3, ptr %10, align 8, !tbaa !21
  store ptr %4, ptr %11, align 8, !tbaa !21
  store ptr %5, ptr %12, align 8, !tbaa !21
  call void @llvm.lifetime.start.p0(i64 4, ptr %13) #13
  store i32 0, ptr %13, align 4, !tbaa !9
  br label %16

16:                                               ; preds = %66, %6
  %17 = load i32, ptr %13, align 4, !tbaa !9
  %18 = icmp slt i32 %17, 2
  br i1 %18, label %20, label %19

19:                                               ; preds = %16
  store i32 2, ptr %14, align 4
  call void @llvm.lifetime.end.p0(i64 4, ptr %13) #13
  br label %69

20:                                               ; preds = %16
  call void @llvm.lifetime.start.p0(i64 4, ptr %15) #13
  store i32 0, ptr %15, align 4, !tbaa !9
  br label %21

21:                                               ; preds = %62, %20
  %22 = load i32, ptr %15, align 4, !tbaa !9
  %23 = icmp slt i32 %22, 2
  br i1 %23, label %25, label %24

24:                                               ; preds = %21
  store i32 5, ptr %14, align 4
  call void @llvm.lifetime.end.p0(i64 4, ptr %15) #13
  br label %65

25:                                               ; preds = %21
  %26 = load ptr, ptr %9, align 8, !tbaa !134
  %27 = getelementptr inbounds nuw %struct.XYRemap, ptr %26, i32 0, i32 0
  %28 = load i32, ptr %13, align 4, !tbaa !9
  %29 = add nsw i32 %28, 1
  %30 = sext i32 %29 to i64
  %31 = getelementptr inbounds [4 x [4 x i16]], ptr %27, i64 0, i64 %30
  %32 = load i32, ptr %15, align 4, !tbaa !9
  %33 = add nsw i32 %32, 1
  %34 = sext i32 %33 to i64
  %35 = getelementptr inbounds [4 x i16], ptr %31, i64 0, i64 %34
  %36 = load i16, ptr %35, align 2, !tbaa !23
  %37 = load ptr, ptr %10, align 8, !tbaa !21
  %38 = load i32, ptr %13, align 4, !tbaa !9
  %39 = mul nsw i32 %38, 2
  %40 = load i32, ptr %15, align 4, !tbaa !9
  %41 = add nsw i32 %39, %40
  %42 = sext i32 %41 to i64
  %43 = getelementptr inbounds i16, ptr %37, i64 %42
  store i16 %36, ptr %43, align 2, !tbaa !23
  %44 = load ptr, ptr %9, align 8, !tbaa !134
  %45 = getelementptr inbounds nuw %struct.XYRemap, ptr %44, i32 0, i32 1
  %46 = load i32, ptr %13, align 4, !tbaa !9
  %47 = add nsw i32 %46, 1
  %48 = sext i32 %47 to i64
  %49 = getelementptr inbounds [4 x [4 x i16]], ptr %45, i64 0, i64 %48
  %50 = load i32, ptr %15, align 4, !tbaa !9
  %51 = add nsw i32 %50, 1
  %52 = sext i32 %51 to i64
  %53 = getelementptr inbounds [4 x i16], ptr %49, i64 0, i64 %52
  %54 = load i16, ptr %53, align 2, !tbaa !23
  %55 = load ptr, ptr %11, align 8, !tbaa !21
  %56 = load i32, ptr %13, align 4, !tbaa !9
  %57 = mul nsw i32 %56, 2
  %58 = load i32, ptr %15, align 4, !tbaa !9
  %59 = add nsw i32 %57, %58
  %60 = sext i32 %59 to i64
  %61 = getelementptr inbounds i16, ptr %55, i64 %60
  store i16 %54, ptr %61, align 2, !tbaa !23
  br label %62

62:                                               ; preds = %25
  %63 = load i32, ptr %15, align 4, !tbaa !9
  %64 = add nsw i32 %63, 1
  store i32 %64, ptr %15, align 4, !tbaa !9
  br label %21, !llvm.loop !148

65:                                               ; preds = %24
  br label %66

66:                                               ; preds = %65
  %67 = load i32, ptr %13, align 4, !tbaa !9
  %68 = add nsw i32 %67, 1
  store i32 %68, ptr %13, align 4, !tbaa !9
  br label %16, !llvm.loop !149

69:                                               ; preds = %19
  %70 = load float, ptr %7, align 4, !tbaa !99
  %71 = fsub nsz float 1.000000e+00, %70
  %72 = load float, ptr %8, align 4, !tbaa !99
  %73 = fsub nsz float 1.000000e+00, %72
  %74 = fmul nsz float %71, %73
  %75 = fmul nsz float %74, 1.638500e+04
  %76 = call i64 @llvm.lrint.i64.f32(float %75)
  %77 = trunc i64 %76 to i16
  %78 = load ptr, ptr %12, align 8, !tbaa !21
  %79 = getelementptr inbounds i16, ptr %78, i64 0
  store i16 %77, ptr %79, align 2, !tbaa !23
  %80 = load float, ptr %7, align 4, !tbaa !99
  %81 = load float, ptr %8, align 4, !tbaa !99
  %82 = fsub nsz float 1.000000e+00, %81
  %83 = fmul nsz float %80, %82
  %84 = fmul nsz float %83, 1.638500e+04
  %85 = call i64 @llvm.lrint.i64.f32(float %84)
  %86 = trunc i64 %85 to i16
  %87 = load ptr, ptr %12, align 8, !tbaa !21
  %88 = getelementptr inbounds i16, ptr %87, i64 1
  store i16 %86, ptr %88, align 2, !tbaa !23
  %89 = load float, ptr %7, align 4, !tbaa !99
  %90 = fsub nsz float 1.000000e+00, %89
  %91 = load float, ptr %8, align 4, !tbaa !99
  %92 = fmul nsz float %90, %91
  %93 = fmul nsz float %92, 1.638500e+04
  %94 = call i64 @llvm.lrint.i64.f32(float %93)
  %95 = trunc i64 %94 to i16
  %96 = load ptr, ptr %12, align 8, !tbaa !21
  %97 = getelementptr inbounds i16, ptr %96, i64 2
  store i16 %95, ptr %97, align 2, !tbaa !23
  %98 = load float, ptr %7, align 4, !tbaa !99
  %99 = load float, ptr %8, align 4, !tbaa !99
  %100 = fmul nsz float %98, %99
  %101 = fmul nsz float %100, 1.638500e+04
  %102 = call i64 @llvm.lrint.i64.f32(float %101)
  %103 = trunc i64 %102 to i16
  %104 = load ptr, ptr %12, align 8, !tbaa !21
  %105 = getelementptr inbounds i16, ptr %104, i64 3
  store i16 %103, ptr %105, align 2, !tbaa !23
  ret void
}