; Function Attrs: nofree norecurse nosync nounwind memory(argmem: readwrite) uwtable
define internal void @bilinear_kernel(float noundef %0, float noundef %1, ptr noundef readonly captures(none) %2, ptr noundef writeonly captures(none) %3, ptr noundef writeonly captures(none) %4, ptr noundef writeonly captures(none) %5) #1 {
  %7 = getelementptr inbounds nuw i8, ptr %2, i64 32
  %invariant.gep = getelementptr inbounds i8, ptr %7, i64 2
  %invariant.gep35 = getelementptr inbounds i8, ptr %7, i64 4
  br label %.preheader

.preheader:                                       ; preds = %6, %.preheader
  %8 = phi i1 [ true, %6 ], [ false, %.preheader ]
  %indvars.iv31 = phi i64 [ 0, %6 ], [ 1, %.preheader ]
  %indvars.iv.next32 = add nuw nsw i64 %indvars.iv31, 1
  %9 = shl nuw nsw i64 %indvars.iv31, 1
  %10 = getelementptr inbounds nuw [4 x [4 x i16]], ptr %2, i64 0, i64 %indvars.iv.next32, i64 1
  %11 = load i16, ptr %10, align 2, !tbaa !15
  %12 = getelementptr inbounds nuw i16, ptr %3, i64 %9
  store i16 %11, ptr %12, align 2, !tbaa !15
  %.idx = shl nuw nsw i64 %indvars.iv.next32, 3
  %gep = getelementptr inbounds i8, ptr %invariant.gep, i64 %.idx
  %13 = load i16, ptr %gep, align 2, !tbaa !15
  %14 = getelementptr inbounds nuw i16, ptr %4, i64 %9
  store i16 %13, ptr %14, align 2, !tbaa !15
  %15 = getelementptr inbounds nuw [4 x [4 x i16]], ptr %2, i64 0, i64 %indvars.iv.next32, i64 2
  %16 = load i16, ptr %15, align 2, !tbaa !15
  %17 = or disjoint i64 %9, 1
  %18 = getelementptr inbounds nuw i16, ptr %3, i64 %17
  store i16 %16, ptr %18, align 2, !tbaa !15
  %.idx34 = shl nuw nsw i64 %indvars.iv.next32, 3
  %gep36 = getelementptr inbounds i8, ptr %invariant.gep35, i64 %.idx34
  %19 = load i16, ptr %gep36, align 2, !tbaa !15
  %20 = getelementptr inbounds nuw i16, ptr %4, i64 %17
  store i16 %19, ptr %20, align 2, !tbaa !15
  br i1 %8, label %.preheader, label %21, !llvm.loop !136

21:                                               ; preds = %.preheader
  %22 = fsub nsz float 1.000000e+00, %0
  %23 = fsub nsz float 1.000000e+00, %1
  %24 = fmul nsz float %22, %23
  %25 = fmul nsz float %24, 1.638500e+04
  %26 = tail call i64 @llvm.lrint.i64.f32(float %25)
  %27 = trunc i64 %26 to i16
  store i16 %27, ptr %5, align 2, !tbaa !15
  %28 = fmul nsz float %0, %23
  %29 = fmul nsz float %28, 1.638500e+04
  %30 = tail call i64 @llvm.lrint.i64.f32(float %29)
  %31 = trunc i64 %30 to i16
  %32 = getelementptr inbounds nuw i8, ptr %5, i64 2
  store i16 %31, ptr %32, align 2, !tbaa !15
  %33 = fmul nsz float %22, %1
  %34 = fmul nsz float %33, 1.638500e+04
  %35 = tail call i64 @llvm.lrint.i64.f32(float %34)
  %36 = trunc i64 %35 to i16
  %37 = getelementptr inbounds nuw i8, ptr %5, i64 4
  store i16 %36, ptr %37, align 2, !tbaa !15
  %38 = fmul nsz float %0, %1
  %39 = fmul nsz float %38, 1.638500e+04
  %40 = tail call i64 @llvm.lrint.i64.f32(float %39)
  %41 = trunc i64 %40 to i16
  %42 = getelementptr inbounds nuw i8, ptr %5, i64 6
  store i16 %41, ptr %42, align 2, !tbaa !15
  ret void
}